Case Server CA 2009====================SHA1 Fingerprint: 7B:92:7C:46:DD:61:66:D8:85:7D:D0:4C:2C:72:A9:37:B5:5F:DD:41PEM Data:-----BEGIN CERTIFICATE-----MIIFcTCCA1mgAwIBAgIBdzANBgkqhkiG9w0BAQUFADCB4jELMAkGA1UEBhMCVVMxDTALBgNVBAgTBE9oaW8xEjAQBgNVBAcTCUNsZXZlbGFuZDEoMCYGA1UEChMfQ2FzZSBXZXN0ZXJuIFJlc2VydmUgVW5pdmVyc2l0eTEsMCoGA1UECxMjVGVjaG9ub2xvZ3kgSW5mcmFzdHJ1Y3R1cmUgU2VydmljZXMxLTArBgNVBAMTJENhc2UgUm9vdCBDZXJ0aWZpY2F0ZSBBdXRob3JpdHkgMjAwOTEpMCcGCSqGSIb3DQEJARYaY2VydGlmaWNhdGUtYWRtaW5AY2FzZS5lZHUwHhcNMDkwNTI4MTgzMzA4WhcNMTkwNTI2MTgzMzA4WjCBvTELMAkGA1UEBhMCVVMxDTALBgNVBAgTBE9oaW8xKDAmBgNVBAoTH0Nhc2UgV2VzdGVybiBSZXNlcnZlIFVuaXZlcnNpdHkxLDAqBgNVBAsTI1RlY2hvbm9sb2d5IEluZnJhc3RydWN0dXJlIFNlcnZpY2VzMRwwGgYDVQQDExNDYXNlIFNlcnZlciBDQSAyMDA5MSkwJwYJKoZIhvcNAQkBFhpjZXJ0aWZpY2F0ZS1hZG1pbkBjYXNlLmVkdTCCASIwDQYJKoZIhvcNAQEBBQADggEPADCCAQoCggEBALBCPiJrQDA+TJZ+/0+6U18+OGWZ7bxnrhdJyU6DRQUuWce7cQ6dVyAtScU/KqqTEdZw7A7gojzZqIbKc+ezr4hC39HrLlRUVqANIRRqToPgmV5bINnqGqWmSKSNL5ktK0gDVblaxLhFXwiWtdQULRkBHyOVwNDjTxeJFj3Y4KPEEwsvpxuDcxVo0XYR/2lZpkRS95Zcg755ubFVLRUawpqvgM8v+nuGQV2LRTQ1fqRBl/1HL6VmMqnR9zuUfPMmF8/v46Wp4lVf6AQl3ZhAIvKGV6Uz4zXxB4IyjN4NQ1r9NrzZUXLXk7toigHNvQi1ZT7NloSqXKE80B3zdV/jK/cCAwEAAaNVMFMwDwYDVR0TAQH/BAUwAwEB/zAOBgNVHQ8BAf8EBAMCAYYwEQYJYIZIAYb4QgEBBAQDAgEGMB0GA1UdDgQWBBR2eeBw42HjsaMxes+JPDyGQvSQQzANBgkqhkiG9w0BAQUFAAOCAgEAJ+e08GUL56P+gYqEJWhvMzSflKH0dRVPIhIb4zPzynJqAAXb7u9q0ZJPIG61/XvaINeRMsRCBt0kC7XSee2A5pL5oh4xQQg5bAiYuNvF5nTMi0CYw2EM8NMjV4V+IVBoTM3ps1bWmQmAht1vla7kwFlyOjZXrZsPJPZSPTB9XK2nrkXVQ1tnT922wF67f6hbSOFEEchzLbp2gR3RTm0WhC989lHAB3fkWTiG0ra74WJEtHiCLKZHNsPYedhsgYDzpuujbdRdXUlWwInOSXyn2FC4olqibKXZBjTMX6zNBt6m8V2n6uaJyd+Xgk1OTjRaMjuHd/vS8uWXS0haRrkr0bERJ42wSyCk74q9OKIuB3PfTfp7OJ11ik86hyui3e72+V26eYl37GimD/awDmlyMYYWzdgVknIchbTjql94aaZRqCYP3z/nixib8KP+n7c5pc2NNu1JaDndYDCgYO/H71oBGnGYwUALtSI2tn3ZQG5AQgtbqzs6S0advMp9KjnNfi9nHcqvgJtWVbBwsYXJstt547xSZOkYQ225CrIk3EjP3nshO2yg973cSbGJEMXFIkeSYKU4at9FCNBT1/h2wcpMDsJhDW6FUnkPdO3EYsqyz9gKGIhPw4KYHiZ4v/JvLGI//fIM8mHPJdj6WcNpr+6H0sKS0UH4ymyzjEMQLNs=-----END CERTIFICATE-----Certificate Ingredients:    Data:        Version: 3 (0x2)        Serial Number: 119 (0x77)        Signature Algorithm: sha1WithRSAEncryption        Issuer: C=US, ST=Ohio, L=Cleveland, O=Case Western Reserve University, OU=Techonology Infrastructure Services, CN=Case Root Certificate Authority 2009/emailAddress=certificate-admin@case.edu        Validity            Not Before: May 28 18:33:08 2009 GMT            Not After : May 26 18:33:08 2019 GMT        Subject: C=US, ST=Ohio, O=Case Western Reserve University, OU=Techonology Infrastructure Services, CN=Case Server CA 2009/emailAddress=certificate-admin@case.edu        Subject Public Key Info:            Public Key Algorithm: rsaEncryption            RSA Public Key: (2048 bit)                Modulus (2048 bit):                    00:b0:42:3e:22:6b:40:30:3e:4c:96:7e:ff:4f:ba:                    53:5f:3e:38:65:99:ed:bc:67:ae:17:49:c9:4e:83:                    45:05:2e:59:c7:bb:71:0e:9d:57:20:2d:49:c5:3f:                    2a:aa:93:11:d6:70:ec:0e:e0:a2:3c:d9:a8:86:ca:                    73:e7:b3:af:88:42:df:d1:eb:2e:54:54:56:a0:0d:                    21:14:6a:4e:83:e0:99:5e:5b:20:d9:ea:1a:a5:a6:                    48:a4:8d:2f:99:2d:2b:48:03:55:b9:5a:c4:b8:45:                    5f:08:96:b5:d4:14:2d:19:01:1f:23:95:c0:d0:e3:                    4f:17:89:16:3d:d8:e0:a3:c4:13:0b:2f:a7:1b:83:                    73:15:68:d1:76:11:ff:69:59:a6:44:52:f7:96:5c:                    83:be:79:b9:b1:55:2d:15:1a:c2:9a:af:80:cf:2f:                    fa:7b:86:41:5d:8b:45:34:35:7e:a4:41:97:fd:47:                    2f:a5:66:32:a9:d1:f7:3b:94:7c:f3:26:17:cf:ef:                    e3:a5:a9:e2:55:5f:e8:04:25:dd:98:40:22:f2:86:                    57:a5:33:e3:35:f1:07:82:32:8c:de:0d:43:5a:fd:                    36:bc:d9:51:72:d7:93:bb:68:8a:01:cd:bd:08:b5:                    65:3e:cd:96:84:aa:5c:a1:3c:d0:1d:f3:75:5f:e3:                    2b:f7                Exponent: 65537 (0x10001)        X509v3 extensions:            X509v3 Basic Constraints: critical                CA:TRUE            X509v3 Key Usage: critical                Digital Signature, Certificate Sign, CRL Sign            Netscape Cert Type:                 SSL CA, S/MIME CA            X509v3 Subject Key Identifier:                 76:79:E0:70:E3:61:E3:B1:A3:31:7A:CF:89:3C:3C:86:42:F4:90:43    Signature Algorithm: sha1WithRSAEncryption        27:e7:b4:f0:65:0b:e7:a3:fe:81:8a:84:25:68:6f:33:34:9f:        94:a1:f4:75:15:4f:22:12:1b:e3:33:f3:ca:72:6a:00:05:db:        ee:ef:6a:d1:92:4f:20:6e:b5:fd:7b:da:20:d7:91:32:c4:42:        06:dd:24:0b:b5:d2:79:ed:80:e6:92:f9:a2:1e:31:41:08:39:        6c:08:98:b8:db:c5:e6:74:cc:8b:40:98:c3:61:0c:f0:d3:23:        57:85:7e:21:50:68:4c:cd:e9:b3:56:d6:99:09:80:86:dd:6f:        95:ae:e4:c0:59:72:3a:36:57:ad:9b:0f:24:f6:52:3d:30:7d:        5c:ad:a7:ae:45:d5:43:5b:67:4f:dd:b6:c0:5e:bb:7f:a8:5b:        48:e1:44:11:c8:73:2d:ba:76:81:1d:d1:4e:6d:16:84:2f:7c:        f6:51:c0:07:77:e4:59:38:86:d2:b6:bb:e1:62:44:b4:78:82:        2c:a6:47:36:c3:d8:79:d8:6c:81:80:f3:a6:eb:a3:6d:d4:5d:        5d:49:56:c0:89:ce:49:7c:a7:d8:50:b8:a2:5a:a2:6c:a5:d9:        06:34:cc:5f:ac:cd:06:de:a6:f1:5d:a7:ea:e6:89:c9:df:97:        82:4d:4e:4e:34:5a:32:3b:87:77:fb:d2:f2:e5:97:4b:48:5a:        46:b9:2b:d1:b1:11:27:8d:b0:4b:20:a4:ef:8a:bd:38:a2:2e:        07:73:df:4d:fa:7b:38:9d:75:8a:4f:3a:87:2b:a2:dd:ee:f6:        f9:5d:ba:79:89:77:ec:68:a6:0f:f6:b0:0e:69:72:31:86:16:        cd:d8:15:92:72:1c:85:b4:e3:aa:5f:78:69:a6:51:a8:26:0f:        df:3f:e7:8b:18:9b:f0:a3:fe:9f:b7:39:a5:cd:8d:36:ed:49:        68:39:dd:60:30:a0:60:ef:c7:ef:5a:01:1a:71:98:c1:40:0b:        b5:22:36:b6:7d:d9:40:6e:40:42:0b:5b:ab:3b:3a:4b:46:9d:        bc:ca:7d:2a:39:cd:7e:2f:67:1d:ca:af:80:9b:56:55:b0:70:        b1:85:c9:b2:db:79:e3:bc:52:64:e9:18:43:6d:b9:0a:b2:24:        dc:48:cf:de:7b:21:3b:6c:a0:f7:bd:dc:49:b1:89:10:c5:c5:        22:47:92:60:a5:38:6a:df:45:08:d0:53:d7:f8:76:c1:ca:4c:        0e:c2:61:0d:6e:85:52:79:0f:74:ed:c4:62:ca:b2:cf:d8:0a:        18:88:4f:c3:82:98:1e:26:78:bf:f2:6f:2c:62:3f:fd:f2:0c:        f2:61:cf:25:d8:fa:59:c3:69:af:ee:87:d2:c2:92:d1:41:f8:        ca:6c:b3:8c:43:10:2c:dbCase Root CA 2009------------------SHA1 Fingerprint: 18:36:64:E1:3F:BB:50:BD:97:32:35:4F:2F:2F:E7:A2:F9:97:03:E5PEM Data:-----BEGIN CERTIFICATE-----MIIGnjCCBIagAwIBAgIJALhTABf6s1h5MA0GCSqGSIb3DQEBBQUAMIHiMQswCQYDVQQGEwJVUzENMAsGA1UECBMET2hpbzESMBAGA1UEBxMJQ2xldmVsYW5kMSgwJgYDVQQKEx9DYXNlIFdlc3Rlcm4gUmVzZXJ2ZSBVbml2ZXJzaXR5MSwwKgYDVQQLEyNUZWNob25vbG9neSBJbmZyYXN0cnVjdHVyZSBTZXJ2aWNlczEtMCsGA1UEAxMkQ2FzZSBSb290IENlcnRpZmljYXRlIEF1dGhvcml0eSAyMDA5MSkwJwYJKoZIhvcNAQkBFhpjZXJ0aWZpY2F0ZS1hZG1pbkBjYXNlLmVkdTAeFw0wOTA1MjgxODAyMjFaFw0xOTA1MjYxODAyMjFaMIHiMQswCQYDVQQGEwJVUzENMAsGA1UECBMET2hpbzESMBAGA1UEBxMJQ2xldmVsYW5kMSgwJgYDVQQKEx9DYXNlIFdlc3Rlcm4gUmVzZXJ2ZSBVbml2ZXJzaXR5MSwwKgYDVQQLEyNUZWNob25vbG9neSBJbmZyYXN0cnVjdHVyZSBTZXJ2aWNlczEtMCsGA1UEAxMkQ2FzZSBSb290IENlcnRpZmljYXRlIEF1dGhvcml0eSAyMDA5MSkwJwYJKoZIhvcNAQkBFhpjZXJ0aWZpY2F0ZS1hZG1pbkBjYXNlLmVkdTCCAiIwDQYJKoZIhvcNAQEBBQADggIPADCCAgoCggIBAPYwYNBrjW9WEyXsutZ53jklBCL+35ZO5GHcFfM2NfvbVHEv06VbWXSjuLKpIKa+WrYArHL/hMqsbE6CM7QEvmSi/wPqDkm5gl6nMcCgZpeNsWdnK7pHU5rahllmvDFdGFPwioln4igjpAIcvCd47hIC8KhUYy7hFyLAySew+wfJBImE2z7VfS/nHupeF91EaodE17SRxzrEAZiq628hbdyM8kpU6lWhFR8omZgBtzQrkjX1fxY1rXKwt7ILfup692KIemJYBLficuzuXFl2Q119E81H6azfJ90A7kguaaOInSkJQiFvqgcwTxJRtEg91aavt4Ftkqy2PgFrJEbiP4JdHNlB9csVSmNcZ/mRB4kSXh1oqCieFq11NKSJvUWANjKEBCF8L9z2MS0Wx7rzmFhxlfiPttGvQvdOhP10HXzIDoP4s7Kg0f6AyIvBQirfIyrl0R8Xbz9Uut70SatYdgBWGh85caTm4r3HyAwVXW3pTC49HlJG069EnaFTBeWvXPyIhjcRU4+Sw1lTlxF80p1BWHuOzxJdnxrpoczXpytyklMsIb40RYyBIs+vT0bz/CVJqNynEdbV2aWeJBrIjcLBlhoOBn1KZHJg3juFxWm83YRQL1Yaz7BFOornHizChsHMkQy05quuBmS8EZ4RL750A1qGOgvuDYHlaLdN03hbAgMBAAGjVTBTMA8GA1UdEwEB/wQFMAMBAf8wDgYDVR0PAQH/BAQDAgGGMBEGCWCGSAGG+EIBAQQEAwIBBjAdBgNVHQ4EFgQUpNwPpicdfGC845h7M78jibDM1UswDQYJKoZIhvcNAQEFBQADggIBANzif8iXVkokt3p9xBBxGF/77D9b43Q3bpuKXwJbX7lP6J6OUXohQSGOVFxRovgLZ0/atPEt1bzYuPNdwIdm3u/8VRVbkWGfgcMbRxURBRzLPVB39zo1qN5jJiwAjmvUHgnUm5xuiPfZQu4I+sV/lCK/MMLnC374ck+26T8uubGCc+/UwbUVpNwOrEKz1rZEcvHh8fXrjHcHkGu1zrU8BCnQugm05a41jj0/j3cCKnaOl5HVE9/MdY+PMgXO+8ZbmNKsHjiZo1PbRgtMsOfC54n6AqXJgNGTtCxjvmitIXMGGEuoxr+z5zAoU4TWir65xTq/kevucGAhl4+rYiDB/Vqci/Qt/ofpjxEmXg5EMD1OeGi0q/3HeAKXbf+O9l1ReoVAPkwLnrkE1j2CcFSSsr5UPdRuaKFx+TYttqlihimQzXDFOS+wPih5Fw0hZX/JuFnUTUUHnH2zB4+11hrTbdgP52z50Ti6LTLsEhfu+Zk9Bg2Gyvv2LekLPNuYvAn5Jgr9wBUP1v4n977/plDawx+/mMvVWonVlk+RdVHTLBNqUBccOP8h17qdjZXyTgPFIdkJDnM1X6vLA4XkvCVmiQQZL2RsXHlEk+Z7X8kehTS26arixc467CW0Zuij0mvzU/3hc6BM0kfNadfLLfXWcpgi80bWOJp7w/O25ReYpOAs-----END CERTIFICATE-----Certificate Ingredients:    Data:        Version: 3 (0x2)        Serial Number:            b8:53:00:17:fa:b3:58:79        Signature Algorithm: sha1WithRSAEncryption        Issuer: C=US, ST=Ohio, L=Cleveland, O=Case Western Reserve University, OU=Techonology Infrastructure Services, CN=Case Root Certificate Authority 2009/emailAddress=certificate-admin@case.edu        Validity            Not Before: May 28 18:02:21 2009 GMT            Not After : May 26 18:02:21 2019 GMT        Subject: C=US, ST=Ohio, L=Cleveland, O=Case Western Reserve University, OU=Techonology Infrastructure Services, CN=Case Root Certificate Authority 2009/emailAddress=certificate-admin@case.edu        Subject Public Key Info:            Public Key Algorithm: rsaEncryption            RSA Public Key: (4096 bit)                Modulus (4096 bit):                    00:f6:30:60:d0:6b:8d:6f:56:13:25:ec:ba:d6:79:                    de:39:25:04:22:fe:df:96:4e:e4:61:dc:15:f3:36:                    35:fb:db:54:71:2f:d3:a5:5b:59:74:a3:b8:b2:a9:                    20:a6:be:5a:b6:00:ac:72:ff:84:ca:ac:6c:4e:82:                    33:b4:04:be:64:a2:ff:03:ea:0e:49:b9:82:5e:a7:                    31:c0:a0:66:97:8d:b1:67:67:2b:ba:47:53:9a:da:                    86:59:66:bc:31:5d:18:53:f0:8a:89:67:e2:28:23:                    a4:02:1c:bc:27:78:ee:12:02:f0:a8:54:63:2e:e1:                    17:22:c0:c9:27:b0:fb:07:c9:04:89:84:db:3e:d5:                    7d:2f:e7:1e:ea:5e:17:dd:44:6a:87:44:d7:b4:91:                    c7:3a:c4:01:98:aa:eb:6f:21:6d:dc:8c:f2:4a:54:                    ea:55:a1:15:1f:28:99:98:01:b7:34:2b:92:35:f5:                    7f:16:35:ad:72:b0:b7:b2:0b:7e:ea:7a:f7:62:88:                    7a:62:58:04:b7:e2:72:ec:ee:5c:59:76:43:5d:7d:                    13:cd:47:e9:ac:df:27:dd:00:ee:48:2e:69:a3:88:                    9d:29:09:42:21:6f:aa:07:30:4f:12:51:b4:48:3d:                    d5:a6:af:b7:81:6d:92:ac:b6:3e:01:6b:24:46:e2:                    3f:82:5d:1c:d9:41:f5:cb:15:4a:63:5c:67:f9:91:                    07:89:12:5e:1d:68:a8:28:9e:16:ad:75:34:a4:89:                    bd:45:80:36:32:84:04:21:7c:2f:dc:f6:31:2d:16:                    c7:ba:f3:98:58:71:95:f8:8f:b6:d1:af:42:f7:4e:                    84:fd:74:1d:7c:c8:0e:83:f8:b3:b2:a0:d1:fe:80:                    c8:8b:c1:42:2a:df:23:2a:e5:d1:1f:17:6f:3f:54:                    ba:de:f4:49:ab:58:76:00:56:1a:1f:39:71:a4:e6:                    e2:bd:c7:c8:0c:15:5d:6d:e9:4c:2e:3d:1e:52:46:                    d3:af:44:9d:a1:53:05:e5:af:5c:fc:88:86:37:11:                    53:8f:92:c3:59:53:97:11:7c:d2:9d:41:58:7b:8e:                    cf:12:5d:9f:1a:e9:a1:cc:d7:a7:2b:72:92:53:2c:                    21:be:34:45:8c:81:22:cf:af:4f:46:f3:fc:25:49:                    a8:dc:a7:11:d6:d5:d9:a5:9e:24:1a:c8:8d:c2:c1:                    96:1a:0e:06:7d:4a:64:72:60:de:3b:85:c5:69:bc:                    dd:84:50:2f:56:1a:cf:b0:45:3a:8a:e7:1e:2c:c2:                    86:c1:cc:91:0c:b4:e6:ab:ae:06:64:bc:11:9e:11:                    2f:be:74:03:5a:86:3a:0b:ee:0d:81:e5:68:b7:4d:                    d3:78:5b                Exponent: 65537 (0x10001)        X509v3 extensions:            X509v3 Basic Constraints: critical                CA:TRUE            X509v3 Key Usage: critical                Digital Signature, Certificate Sign, CRL Sign            Netscape Cert Type:                 SSL CA, S/MIME CA            X509v3 Subject Key Identifier:                 A4:DC:0F:A6:27:1D:7C:60:BC:E3:98:7B:33:BF:23:89:B0:CC:D5:4B    Signature Algorithm: sha1WithRSAEncryption        dc:e2:7f:c8:97:56:4a:24:b7:7a:7d:c4:10:71:18:5f:fb:ec:        3f:5b:e3:74:37:6e:9b:8a:5f:02:5b:5f:b9:4f:e8:9e:8e:51:        7a:21:41:21:8e:54:5c:51:a2:f8:0b:67:4f:da:b4:f1:2d:d5:        bc:d8:b8:f3:5d:c0:87:66:de:ef:fc:55:15:5b:91:61:9f:81:        c3:1b:47:15:11:05:1c:cb:3d:50:77:f7:3a:35:a8:de:63:26:        2c:00:8e:6b:d4:1e:09:d4:9b:9c:6e:88:f7:d9:42:ee:08:fa:        c5:7f:94:22:bf:30:c2:e7:0b:7e:f8:72:4f:b6:e9:3f:2e:b9:        b1:82:73:ef:d4:c1:b5:15:a4:dc:0e:ac:42:b3:d6:b6:44:72:        f1:e1:f1:f5:eb:8c:77:07:90:6b:b5:ce:b5:3c:04:29:d0:ba:        09:b4:e5:ae:35:8e:3d:3f:8f:77:02:2a:76:8e:97:91:d5:13:        df:cc:75:8f:8f:32:05:ce:fb:c6:5b:98:d2:ac:1e:38:99:a3:        53:db:46:0b:4c:b0:e7:c2:e7:89:fa:02:a5:c9:80:d1:93:b4:        2c:63:be:68:ad:21:73:06:18:4b:a8:c6:bf:b3:e7:30:28:53:        84:d6:8a:be:b9:c5:3a:bf:91:eb:ee:70:60:21:97:8f:ab:62:        20:c1:fd:5a:9c:8b:f4:2d:fe:87:e9:8f:11:26:5e:0e:44:30:        3d:4e:78:68:b4:ab:fd:c7:78:02:97:6d:ff:8e:f6:5d:51:7a:        85:40:3e:4c:0b:9e:b9:04:d6:3d:82:70:54:92:b2:be:54:3d:        d4:6e:68:a1:71:f9:36:2d:b6:a9:62:86:29:90:cd:70:c5:39:        2f:b0:3e:28:79:17:0d:21:65:7f:c9:b8:59:d4:4d:45:07:9c:        7d:b3:07:8f:b5:d6:1a:d3:6d:d8:0f:e7:6c:f9:d1:38:ba:2d:        32:ec:12:17:ee:f9:99:3d:06:0d:86:ca:fb:f6:2d:e9:0b:3c:        db:98:bc:09:f9:26:0a:fd:c0:15:0f:d6:fe:27:f7:be:ff:a6:        50:da:c3:1f:bf:98:cb:d5:5a:89:d5:96:4f:91:75:51:d3:2c:        13:6a:50:17:1c:38:ff:21:d7:ba:9d:8d:95:f2:4e:03:c5:21:        d9:09:0e:73:35:5f:ab:cb:03:85:e4:bc:25:66:89:04:19:2f:        64:6c:5c:79:44:93:e6:7b:5f:c9:1e:85:34:b6:e9:aa:e2:c5:        ce:3a:ec:25:b4:66:e8:a3:d2:6b:f3:53:fd:e1:73:a0:4c:d2:        47:cd:69:d7:cb:2d:f5:d6:72:98:22:f3:46:d6:38:9a:7b:c3:        f3:b6:e5:17:98:a4:e0:2cCase Server CA===============MD5 Fingerprint: F7:5E:AA:73:89:0D:51:7C:71:B2:DB:CA:3B:23:6D:A9PEM Data:-----BEGIN CERTIFICATE-----MIIEZzCCA0+gAwIBAgIBAjANBgkqhkiG9w0BAQQFADCB3TELMAkGA1UEBhMCVVMxDTALBgNVBAgTBE9oaW8xEjAQBgNVBAcTCUNsZXZlbGFuZDEoMCYGA1UEChMfQ2FzZSBXZXN0ZXJuIFJlc2VydmUgVW5pdmVyc2l0eTEsMCoGA1UECxMjVGVjaG9ub2xvZ3kgSW5mcmFzdHJ1Y3R1cmUgU2VydmljZXMxKDAmBgNVBAMTH0Nhc2UgUm9vdCBDZXJ0aWZpY2F0ZSBBdXRob3JpdHkxKTAnBgkqhkiG9w0BCQEWGmNlcnRpZmljYXRlLWFkbWluQGNhc2UuZWR1MB4XDTA0MDUyNTE0MjMyM1oXDTI0MDMwNTE0MjMyM1owgbgxCzAJBgNVBAYTAlVTMQ0wCwYDVQQIEwRPaGlvMSgwJgYDVQQKEx9DYXNlIFdlc3Rlcm4gUmVzZXJ2ZSBVbml2ZXJzaXR5MSwwKgYDVQQLEyNUZWNob25vbG9neSBJbmZyYXN0cnVjdHVyZSBTZXJ2aWNlczEXMBUGA1UEAxMOQ2FzZSBTZXJ2ZXIgQ0ExKTAnBgkqhkiG9w0BCQEWGmNlcnRpZmljYXRlLWFkbWluQGNhc2UuZWR1MIIBIjANBgkqhkiG9w0BAQEFAAOCAQ8AMIIBCgKCAQEAmy7ChFeHB12/pBNhNf0CZQYnK6GJu0wUwibe9TMNz83SVAqT78MeVq7ojcIb1yzQxB9svJnygWUFcJ/WbXwKln8s1XPyMBPWYFij9TVgcEIWS5dNTPY9QIA93cV8CYCV5gMh1LapOB6XgJ1j3Beq9U+BeNZjlrOlXrQx6qkZQaoiwDipnM9YUecrebH38jesHABrg4l1oyxuzGXX7bOzTPexBphD1EC38Hvm0OgaAUIr+YZQJe7RjYGWH/BqyJq58iJ0poPbHtmpolSymPSy+b+l4zbao4oUPLfQInpPweFXAFp9q9Vbkvm0qy25r5eLa38U6aVb/xHUuHSgs0crQQIDAQABo1UwUzAPBgNVHRMBAf8EBTADAQH/MA4GA1UdDwEB/wQEAwIBBjARBglghkgBhvhCAQEEBAMCAgQwHQYDVR0OBBYEFLdNIKAZ7KQFmaiIjmWFOHaEETqiMA0GCSqGSIb3DQEBBAUAA4IBAQCgx0mF1QkDYmx67sANL2u1hDddyxym6n+wPp6I9YKafZ+xS9mXEz98wZK6+hvjx8nRaEsJgjww8/Q4/9tUmKN3q/buAw6E8AERbkbIPGEKhwpHf0ikSiZ03OhkMrbUTa7AjWq2Y2Q1m77DEDZR/oH0XKxfTAbGeL/FjDaBt9L2hxV1hwPwLOqc3br2LQAIjRsvnz35Iq+sEsXk2ySHLrGqwynxQz4zvoMfHEw3alXGFPnR47BZWVgXLUSQ3Ojz3PHLHzKOwK4s1HdoQJT65RU/cAS+QT/aVTkpvFbHujDF1+iKtByBFvGzeVmdp3gVtgJyo3mJYB0uVyopcITD7Tnv-----END CERTIFICATE-----Certificate Ingredients:    Data:        Version: 3 (0x2)        Serial Number: 2 (0x2)        Signature Algorithm: md5WithRSAEncryption        Issuer: C=US, ST=Ohio, L=Cleveland, O=Case Western Reserve University, OU=Techonology Infrastructure Services, CN=Case Root Certificate Authority/emailAddress=certificate-admin@case.edu        Validity            Not Before: May 25 14:23:23 2004 GMT            Not After : Mar  5 14:23:23 2024 GMT        Subject: C=US, ST=Ohio, O=Case Western Reserve University, OU=Techonology Infrastructure Services, CN=Case Server CA/emailAddress=certificate-admin@case.edu        Subject Public Key Info:            Public Key Algorithm: rsaEncryption            RSA Public Key: (2048 bit)                Modulus (2048 bit):                    00:9b:2e:c2:84:57:87:07:5d:bf:a4:13:61:35:fd:                    02:65:06:27:2b:a1:89:bb:4c:14:c2:26:de:f5:33:                    0d:cf:cd:d2:54:0a:93:ef:c3:1e:56:ae:e8:8d:c2:                    1b:d7:2c:d0:c4:1f:6c:bc:99:f2:81:65:05:70:9f:                    d6:6d:7c:0a:96:7f:2c:d5:73:f2:30:13:d6:60:58:                    a3:f5:35:60:70:42:16:4b:97:4d:4c:f6:3d:40:80:                    3d:dd:c5:7c:09:80:95:e6:03:21:d4:b6:a9:38:1e:                    97:80:9d:63:dc:17:aa:f5:4f:81:78:d6:63:96:b3:                    a5:5e:b4:31:ea:a9:19:41:aa:22:c0:38:a9:9c:cf:                    58:51:e7:2b:79:b1:f7:f2:37:ac:1c:00:6b:83:89:                    75:a3:2c:6e:cc:65:d7:ed:b3:b3:4c:f7:b1:06:98:                    43:d4:40:b7:f0:7b:e6:d0:e8:1a:01:42:2b:f9:86:                    50:25:ee:d1:8d:81:96:1f:f0:6a:c8:9a:b9:f2:22:                    74:a6:83:db:1e:d9:a9:a2:54:b2:98:f4:b2:f9:bf:                    a5:e3:36:da:a3:8a:14:3c:b7:d0:22:7a:4f:c1:e1:                    57:00:5a:7d:ab:d5:5b:92:f9:b4:ab:2d:b9:af:97:                    8b:6b:7f:14:e9:a5:5b:ff:11:d4:b8:74:a0:b3:47:                    2b:41                 Exponent: 65537 (0x10001)        X509v3 extensions:            X509v3 Basic Constraints: critical            CA:TRUE            X509v3 Key Usage: critical            Certificate Sign, CRL Sign            Netscape Cert Type:             SSL CA            X509v3 Subject Key Identifier:             B7:4D:20:A0:19:EC:A4:05:99:A8:88:8E:65:85:38:76:84:11:3A:A2    Signature Algorithm: md5WithRSAEncryption        a0:c7:49:85:d5:09:03:62:6c:7a:ee:c0:0d:2f:6b:b5:84:37:        5d:cb:1c:a6:ea:7f:b0:3e:9e:88:f5:82:9a:7d:9f:b1:4b:d9:        97:13:3f:7c:c1:92:ba:fa:1b:e3:c7:c9:d1:68:4b:09:82:3c:        30:f3:f4:38:ff:db:54:98:a3:77:ab:f6:ee:03:0e:84:f0:01:        11:6e:46:c8:3c:61:0a:87:0a:47:7f:48:a4:4a:26:74:dc:e8:        64:32:b6:d4:4d:ae:c0:8d:6a:b6:63:64:35:9b:be:c3:10:36:        51:fe:81:f4:5c:ac:5f:4c:06:c6:78:bf:c5:8c:36:81:b7:d2:        f6:87:15:75:87:03:f0:2c:ea:9c:dd:ba:f6:2d:00:08:8d:1b:        2f:9f:3d:f9:22:af:ac:12:c5:e4:db:24:87:2e:b1:aa:c3:29:        f1:43:3e:33:be:83:1f:1c:4c:37:6a:55:c6:14:f9:d1:e3:b0:        59:59:58:17:2d:44:90:dc:e8:f3:dc:f1:cb:1f:32:8e:c0:ae:        2c:d4:77:68:40:94:fa:e5:15:3f:70:04:be:41:3f:da:55:39:        29:bc:56:c7:ba:30:c5:d7:e8:8a:b4:1c:81:16:f1:b3:79:59:        9d:a7:78:15:b6:02:72:a3:79:89:60:1d:2e:57:2a:29:70:84:        c3:ed:39:efCase Root CA--------------MD5 Fingerprint: 0D:52:54:A3:8E:07:B2:B2:34:E4:6E:90:65:A5:65:BBPEM Data:-----BEGIN CERTIFICATE-----MIIFeTCCBGGgAwIBAgIBADANBgkqhkiG9w0BAQQFADCB3TELMAkGA1UEBhMCVVMxDTALBgNVBAgTBE9oaW8xEjAQBgNVBAcTCUNsZXZlbGFuZDEoMCYGA1UEChMfQ2FzZSBXZXN0ZXJuIFJlc2VydmUgVW5pdmVyc2l0eTEsMCoGA1UECxMjVGVjaG9ub2xvZ3kgSW5mcmFzdHJ1Y3R1cmUgU2VydmljZXMxKDAmBgNVBAMTH0Nhc2UgUm9vdCBDZXJ0aWZpY2F0ZSBBdXRob3JpdHkxKTAnBgkqhkiG9w0BCQEWGmNlcnRpZmljYXRlLWFkbWluQGNhc2UuZWR1MB4XDTA0MDMxMTE0MDgwNFoXDTI0MDMwNjE0MDgwNFowgd0xCzAJBgNVBAYTAlVTMQ0wCwYDVQQIEwRPaGlvMRIwEAYDVQQHEwlDbGV2ZWxhbmQxKDAmBgNVBAoTH0Nhc2UgV2VzdGVybiBSZXNlcnZlIFVuaXZlcnNpdHkxLDAqBgNVBAsTI1RlY2hvbm9sb2d5IEluZnJhc3RydWN0dXJlIFNlcnZpY2VzMSgwJgYDVQQDEx9DYXNlIFJvb3QgQ2VydGlmaWNhdGUgQXV0aG9yaXR5MSkwJwYJKoZIhvcNAQkBFhpjZXJ0aWZpY2F0ZS1hZG1pbkBjYXNlLmVkdTCCASIwDQYJKoZIhvcNAQEBBQADggEPADCCAQoCggEBALEseA7x7b+SI2BhMl2zLGdj1Q09XlVu2x69cH7l8Q48JpeTfYGtvWb7VXkSC4ykvfWnQeY741MEC0ExlUGj53sb6dgyh8cD+7eqBZOV1hLSZxb042RVyeaQ9c3keq4491atR2qaIoQX3Cc7B/RV1h7Uw61unqeDtIOeCdrUmWwiOKhPMM9sGNbsTkK6zfgtgiE7IVJKqAR3OeuxcKXwfy7UDvmoEaTi7+tbug3Ljzg54Kk+8BKfmV+hm8xmtqnnHwN4luQenNDYuiwO7kIvjViYfCgPfnHVsFMiwTEHjsg36M7RRUViuhT2/g2QrrspCV0rW9rr7MYQ4BD6K+tmT58CAwEAAaOCAUAwggE8MB0GA1UdDgQWBBQhDoNjlZSpbQ1o7PG7Ho/s+KfiwjCCAQsGA1UdIwSCAQIwgf+AFCEOg2OVlKltDWjs8bsej+z4p+LCoYHjpIHgMIHdMQswCQYDVQQGEwJVUzENMAsGA1UECBMET2hpbzESMBAGA1UEBxMJQ2xldmVsYW5kMSgwJgYDVQQKEx9DYXNlIFdlc3Rlcm4gUmVzZXJ2ZSBVbml2ZXJzaXR5MSwwKgYDVQQLEyNUZWNob25vbG9neSBJbmZyYXN0cnVjdHVyZSBTZXJ2aWNlczEoMCYGA1UEAxMfQ2FzZSBSb290IENlcnRpZmljYXRlIEF1dGhvcml0eTEpMCcGCSqGSIb3DQEJARYaY2VydGlmaWNhdGUtYWRtaW5AY2FzZS5lZHWCAQAwDAYDVR0TBAUwAwEB/zANBgkqhkiG9w0BAQQFAAOCAQEAJo//S0+wKWuhbmlUWC9h/t48O/kNT7G1YP1Rg0gEmhI7Vd8uAvHbO8N9YQkfV5qIt63jagE8k7KsGCl12ZkybAp30kVfwN6oo/pDRNjmsGNcmUau2jUpqVP+kFEIzDPysBW5Bs2cSQocOHgFGY0HCGBoJFCOU3ruPU3rRxOgS5WHclRzTaUrpM/eY75P4Vtcp1X73GZ+6ZhWPdAwoX/Oa9Ul6T3ShAlugfm9T2OhfOs4h/rZHWUgIvsiMuUM41xgrH1WX7ETNPNXao0mWtN44+rv0PEYds0+gR4KKxMMuKbgSw8AogZNeuhwVd85cTWE6fjYcGX7FTAQoSVLVos3jQ==-----END CERTIFICATE-----Certificate Ingredients:    Data:        Version: 3 (0x2)        Serial Number: 0 (0x0)        Signature Algorithm: md5WithRSAEncryption        Issuer: C=US, ST=Ohio, L=Cleveland, O=Case Western Reserve University, OU=Techonology Infrastructure Services, CN=Case Root Certificate Authority/emailAddress=certificate-admin@case.edu        Validity            Not Before: Mar 11 14:08:04 2004 GMT            Not After : Mar  6 14:08:04 2024 GMT        Subject: C=US, ST=Ohio, L=Cleveland, O=Case Western Reserve University, OU=Techonology Infrastructure Services, CN=Case Root Certificate Authority/emailAddress=certificate-admin@case.edu        Subject Public Key Info:            Public Key Algorithm: rsaEncryption            RSA Public Key: (2048 bit)                Modulus (2048 bit):                    00:b1:2c:78:0e:f1:ed:bf:92:23:60:61:32:5d:b3:                    2c:67:63:d5:0d:3d:5e:55:6e:db:1e:bd:70:7e:e5:                    f1:0e:3c:26:97:93:7d:81:ad:bd:66:fb:55:79:12:                    0b:8c:a4:bd:f5:a7:41:e6:3b:e3:53:04:0b:41:31:                    95:41:a3:e7:7b:1b:e9:d8:32:87:c7:03:fb:b7:aa:                    05:93:95:d6:12:d2:67:16:f4:e3:64:55:c9:e6:90:                    f5:cd:e4:7a:ae:38:f7:56:ad:47:6a:9a:22:84:17:                    dc:27:3b:07:f4:55:d6:1e:d4:c3:ad:6e:9e:a7:83:                    b4:83:9e:09:da:d4:99:6c:22:38:a8:4f:30:cf:6c:                    18:d6:ec:4e:42:ba:cd:f8:2d:82:21:3b:21:52:4a:                    a8:04:77:39:eb:b1:70:a5:f0:7f:2e:d4:0e:f9:a8:                    11:a4:e2:ef:eb:5b:ba:0d:cb:8f:38:39:e0:a9:3e:                    f0:12:9f:99:5f:a1:9b:cc:66:b6:a9:e7:1f:03:78:                    96:e4:1e:9c:d0:d8:ba:2c:0e:ee:42:2f:8d:58:98:                    7c:28:0f:7e:71:d5:b0:53:22:c1:31:07:8e:c8:37:                    e8:ce:d1:45:45:62:ba:14:f6:fe:0d:90:ae:bb:29:                    09:5d:2b:5b:da:eb:ec:c6:10:e0:10:fa:2b:eb:66:                    4f:9f                Exponent: 65537 (0x10001)        X509v3 extensions:            X509v3 Subject Key Identifier:             21:0E:83:63:95:94:A9:6D:0D:68:EC:F1:BB:1E:8F:EC:F8:A7:E2:C2            X509v3 Authority Key Identifier:             keyid:21:0E:83:63:95:94:A9:6D:0D:68:EC:F1:BB:1E:8F:EC:F8:A7:E2:C2            DirName:/C=US/ST=Ohio/L=Cleveland/O=Case Western Reserve University/OU=Techonology Infrastructure Services/CN=Case Root Certificate Authority/emailAddress=certificate-admin@case.edu            serial:00            X509v3 Basic Constraints:             CA:TRUE    Signature Algorithm: md5WithRSAEncryption        26:8f:ff:4b:4f:b0:29:6b:a1:6e:69:54:58:2f:61:fe:de:3c:        3b:f9:0d:4f:b1:b5:60:fd:51:83:48:04:9a:12:3b:55:df:2e:        02:f1:db:3b:c3:7d:61:09:1f:57:9a:88:b7:ad:e3:6a:01:3c:        93:b2:ac:18:29:75:d9:99:32:6c:0a:77:d2:45:5f:c0:de:a8:        a3:fa:43:44:d8:e6:b0:63:5c:99:46:ae:da:35:29:a9:53:fe:        90:51:08:cc:33:f2:b0:15:b9:06:cd:9c:49:0a:1c:38:78:05:        19:8d:07:08:60:68:24:50:8e:53:7a:ee:3d:4d:eb:47:13:a0:        4b:95:87:72:54:73:4d:a5:2b:a4:cf:de:63:be:4f:e1:5b:5c:        a7:55:fb:dc:66:7e:e9:98:56:3d:d0:30:a1:7f:ce:6b:d5:25:        e9:3d:d2:84:09:6e:81:f9:bd:4f:63:a1:7c:eb:38:87:fa:d9:        1d:65:20:22:fb:22:32:e5:0c:e3:5c:60:ac:7d:56:5f:b1:13:        34:f3:57:6a:8d:26:5a:d3:78:e3:ea:ef:d0:f1:18:76:cd:3e:        81:1e:0a:2b:13:0c:b8:a6:e0:4b:0f:00:a2:06:4d:7a:e8:70:        55:df:39:71:35:84:e9:f8:d8:70:65:fb:15:30:10:a1:25:4b:        56:8b:37:8d